target datalayout = "e-m:e-p270:32:32-p271:32:32-p272:64:64-i64:64-i128:128-f80:128-n8:16:32:64-S128"
target triple = "x86_64-pc-linux-gnu"

%struct.load_arg = type { i64, ptr, i64, i64, i64, ptr, ptr, ptr, i64, ptr, i8 }

@.str.11 = private unnamed_addr constant [5 x i8] c"call\00", align 1
@s_call = internal global i64 0, align 8
@rb_eRuntimeError = external global i64, align 8
@.str.22 = private unnamed_addr constant [29 x i8] c"Marshal.load reentered at %s\00", align 1

; Function Attrs: nounwind sspstrong uwtable
define internal i64 @check_load_arg(i64 noundef %0, ptr noundef %1, ptr noundef %2) #0 {
  %4 = alloca i64, align 8
  %5 = alloca ptr, align 8
  %6 = alloca ptr, align 8
  store i64 %0, ptr %4, align 8, !tbaa !7
  store ptr %1, ptr %5, align 8, !tbaa !33
  store ptr %2, ptr %6, align 8, !tbaa !20
  %7 = load ptr, ptr %5, align 8, !tbaa !33
  %8 = getelementptr inbounds nuw %struct.load_arg, ptr %7, i32 0, i32 5
  %9 = load ptr, ptr %8, align 8, !tbaa !51
  %10 = icmp ne ptr %9, null
  br i1 %10, label %14, label %11

11:                                               ; preds = %3
  %12 = load i64, ptr @rb_eRuntimeError, align 8, !tbaa !7
  %13 = load ptr, ptr %6, align 8, !tbaa !20
  call void (i64, ptr, ...) @rb_raise(i64 noundef %12, ptr noundef @.str.22, ptr noundef %13) #24
  unreachable

14:                                               ; preds = %3
  %15 = load i64, ptr %4, align 8, !tbaa !7
  ret i64 %15
}

; Function Attrs: nounwind sspstrong uwtable
define internal i64 @r_post_proc(i64 noundef %0, ptr noundef %1) #0 {
  %3 = alloca i64, align 8
  %4 = alloca ptr, align 8
  store i64 %0, ptr %3, align 8, !tbaa !7
  store ptr %1, ptr %4, align 8, !tbaa !33
  %5 = load ptr, ptr %4, align 8, !tbaa !33
  %6 = getelementptr inbounds nuw %struct.load_arg, ptr %5, i32 0, i32 8
  %7 = load i64, ptr %6, align 8, !tbaa !55
  %8 = icmp ne i64 %7, 0
  br i1 %8, label %9, label %17

9:                                                ; preds = %2
  %10 = load ptr, ptr %4, align 8, !tbaa !33
  %11 = getelementptr inbounds nuw %struct.load_arg, ptr %10, i32 0, i32 8
  %12 = load i64, ptr %11, align 8, !tbaa !55
  %13 = load i64, ptr @s_call, align 8, !tbaa !7
  %14 = call i64 @rb_funcallv(i64 noundef %12, i64 noundef %13, i32 noundef 1, ptr noundef %3)
  %15 = load ptr, ptr %4, align 8, !tbaa !33
  %16 = call i64 @check_load_arg(i64 noundef %14, ptr noundef %15, ptr noundef @.str.11)
  store i64 %16, ptr %3, align 8, !tbaa !7
  br label %17

17:                                               ; preds = %9, %2
  %18 = load i64, ptr %3, align 8, !tbaa !7
  ret i64 %18
}