; Function Attrs: nounwind sspstrong uwtable
define internal fastcc i64 @r_post_proc(i64 noundef %0, ptr noundef readonly captures(none) %1) unnamed_addr #0 {
  %3 = alloca i64, align 8
  store i64 %0, ptr %3, align 8, !tbaa !7
  %4 = getelementptr inbounds nuw i8, ptr %1, i64 64
  %5 = load i64, ptr %4, align 8, !tbaa !53
  %.not = icmp eq i64 %5, 0
  br i1 %.not, label %check_load_arg.exit, label %6

6:                                                ; preds = %2
  %7 = load i64, ptr @s_call, align 8, !tbaa !7
  %8 = call i64 @rb_funcallv(i64 noundef %5, i64 noundef %7, i32 noundef 1, ptr noundef nonnull %3) #22
  %9 = getelementptr i8, ptr %1, i64 40
  %.val = load ptr, ptr %9, align 8, !tbaa !47
  %.not.i = icmp eq ptr %.val, null
  br i1 %.not.i, label %10, label %check_load_arg.exit

10:                                               ; preds = %6
  %11 = load i64, ptr @rb_eRuntimeError, align 8, !tbaa !7
  call void (i64, ptr, ...) @rb_raise(i64 noundef %11, ptr noundef nonnull @.str.22, ptr noundef nonnull @.str.11) #23
  unreachable

check_load_arg.exit:                              ; preds = %6, %2
  %12 = phi i64 [ %0, %2 ], [ %8, %6 ]
  ret i64 %12
}